target datalayout = "e-m:e-p270:32:32-p271:32:32-p272:64:64-i64:64-i128:128-f80:128-n8:16:32:64-S128"
target triple = "x86_64-pc-linux-gnu"

%struct.ExpandedObjectMethods = type { ptr, ptr }
%struct.ExpandedRecordHeader = type { %struct.ExpandedObjectHeader, i32, i32, i32, i32, i32, ptr, i64, ptr, ptr, i32, i64, i64, i32, i8, ptr, ptr, ptr, ptr, ptr, ptr, %struct.MemoryContextCallback }
%struct.ExpandedObjectHeader = type { i32, ptr, ptr, [10 x i8], [10 x i8] }
%struct.MemoryContextCallback = type { ptr, ptr, ptr }
%struct.HeapTupleData = type { i32, %struct.ItemPointerData, i32, ptr }
%struct.ItemPointerData = type { %struct.BlockIdData, i16 }
%struct.BlockIdData = type { i16, i16 }
%struct.HeapTupleHeaderData = type { %union.anon, %struct.ItemPointerData, i16, i16, i8, [0 x i8] }
%union.anon = type { %struct.HeapTupleFields }
%struct.HeapTupleFields = type { i32, i32, %union.anon.0 }
%union.anon.0 = type { i32 }
%struct.anon = type { i32, [0 x i8] }
%struct.DatumTupleFields = type { i32, i32, i32 }
%struct.varattrib_1b = type { i8, [0 x i8] }
%struct.varattrib_1b_e = type { i8, i8, [0 x i8] }

@.str.2 = private unnamed_addr constant [16 x i8] c"expanded record\00", align 1
@ER_methods = internal constant %struct.ExpandedObjectMethods { ptr @ER_get_flat_size, ptr @ER_flatten_into }, align 8
@CurrentMemoryContext = external global ptr, align 8

; Function Attrs: inlinehint nounwind uwtable
define internal i64 @PointerGetDatum(ptr noundef %0) #5 {
  %2 = alloca ptr, align 8
  store ptr %0, ptr %2, align 8
  %3 = load ptr, ptr %2, align 8
  %4 = ptrtoint ptr %3 to i64
  ret i64 %4
}

; Function Attrs: inlinehint nounwind uwtable
define internal void @BlockIdSet(ptr noundef %0, i32 noundef %1) #5 {
  %3 = alloca ptr, align 8
  %4 = alloca i32, align 4
  store ptr %0, ptr %3, align 8
  store i32 %1, ptr %4, align 4
  %5 = load i32, ptr %4, align 4
  %6 = lshr i32 %5, 16
  %7 = trunc i32 %6 to i16
  %8 = load ptr, ptr %3, align 8
  %9 = getelementptr inbounds nuw %struct.BlockIdData, ptr %8, i32 0, i32 0
  store i16 %7, ptr %9, align 2
  %10 = load i32, ptr %4, align 4
  %11 = and i32 %10, 65535
  %12 = trunc i32 %11 to i16
  %13 = load ptr, ptr %3, align 8
  %14 = getelementptr inbounds nuw %struct.BlockIdData, ptr %13, i32 0, i32 1
  store i16 %12, ptr %14, align 2
  ret void
}

; Function Attrs: inlinehint nounwind uwtable
define internal i64 @EOHPGetRWDatum(ptr noundef %0) #5 {
  %2 = alloca ptr, align 8
  store ptr %0, ptr %2, align 8
  %3 = load ptr, ptr %2, align 8
  %4 = getelementptr inbounds nuw %struct.ExpandedObjectHeader, ptr %3, i32 0, i32 3
  %5 = getelementptr inbounds [10 x i8], ptr %4, i64 0, i64 0
  %6 = call i64 @PointerGetDatum(ptr noundef %5)
  ret i64 %6
}

; Function Attrs: inlinehint nounwind uwtable
define internal i32 @HeapTupleHeaderGetTypMod(ptr noundef %0) #5 {
  %2 = alloca ptr, align 8
  store ptr %0, ptr %2, align 8
  %3 = load ptr, ptr %2, align 8
  %4 = getelementptr inbounds nuw %struct.HeapTupleHeaderData, ptr %3, i32 0, i32 0
  %5 = getelementptr inbounds nuw %struct.DatumTupleFields, ptr %4, i32 0, i32 1
  %6 = load i32, ptr %5, align 4
  ret i32 %6
}

; Function Attrs: inlinehint nounwind uwtable
define internal i32 @HeapTupleHeaderGetTypeId(ptr noundef %0) #5 {
  %2 = alloca ptr, align 8
  store ptr %0, ptr %2, align 8
  %3 = load ptr, ptr %2, align 8
  %4 = getelementptr inbounds nuw %struct.HeapTupleHeaderData, ptr %3, i32 0, i32 0
  %5 = getelementptr inbounds nuw %struct.DatumTupleFields, ptr %4, i32 0, i32 2
  %6 = load i32, ptr %5, align 4
  ret i32 %6
}

; Function Attrs: inlinehint nounwind uwtable
define internal ptr @MemoryContextSwitchTo(ptr noundef %0) #5 {
  %2 = alloca ptr, align 8
  %3 = alloca ptr, align 8
  store ptr %0, ptr %2, align 8
  call void @llvm.lifetime.start.p0(i64 8, ptr %3) #9
  %4 = load ptr, ptr @CurrentMemoryContext, align 8
  store ptr %4, ptr %3, align 8
  %5 = load ptr, ptr %2, align 8
  store ptr %5, ptr @CurrentMemoryContext, align 8
  %6 = load ptr, ptr %3, align 8
  call void @llvm.lifetime.end.p0(i64 8, ptr %3) #9
  ret ptr %6
}

; Function Attrs: inlinehint nounwind uwtable
define internal void @ItemPointerSetInvalid(ptr noundef %0) #5 {
  %2 = alloca ptr, align 8
  store ptr %0, ptr %2, align 8
  %3 = load ptr, ptr %2, align 8
  %4 = getelementptr inbounds nuw %struct.ItemPointerData, ptr %3, i32 0, i32 0
  call void @BlockIdSet(ptr noundef %4, i32 noundef -1)
  %5 = load ptr, ptr %2, align 8
  %6 = getelementptr inbounds nuw %struct.ItemPointerData, ptr %5, i32 0, i32 1
  store i16 0, ptr %6, align 2
  ret void
}

; Function Attrs: inlinehint nounwind uwtable
define internal i32 @HeapTupleHeaderGetDatumLength(ptr noundef %0) #5 {
  %2 = alloca ptr, align 8
  store ptr %0, ptr %2, align 8
  %3 = load ptr, ptr %2, align 8
  %4 = getelementptr inbounds nuw %struct.anon, ptr %3, i32 0, i32 0
  %5 = load i32, ptr %4, align 4
  %6 = lshr i32 %5, 2
  %7 = and i32 %6, 1073741823
  ret i32 %7
}

; Function Attrs: nounwind uwtable
define dso_local i64 @make_expanded_record_from_datum(i64 noundef %0, ptr noundef %1) #0 {
  %3 = alloca i64, align 8
  %4 = alloca ptr, align 8
  %5 = alloca ptr, align 8
  %6 = alloca ptr, align 8
  %7 = alloca %struct.HeapTupleData, align 8
  %8 = alloca ptr, align 8
  %9 = alloca ptr, align 8
  %10 = alloca ptr, align 8
  %11 = alloca i32, align 4
  store i64 %0, ptr %3, align 8
  store ptr %1, ptr %4, align 8
  call void @llvm.lifetime.start.p0(i64 8, ptr %5) #9
  call void @llvm.lifetime.start.p0(i64 8, ptr %6) #9
  call void @llvm.lifetime.start.p0(i64 24, ptr %7) #9
  call void @llvm.lifetime.start.p0(i64 8, ptr %8) #9
  call void @llvm.lifetime.start.p0(i64 8, ptr %9) #9
  call void @llvm.lifetime.start.p0(i64 8, ptr %10) #9
  br label %12

12:                                               ; preds = %2
  br label %13

13:                                               ; preds = %12
  br label %14

14:                                               ; preds = %13
  store i32 1, ptr %11, align 4
  %15 = load ptr, ptr %4, align 8
  %16 = call ptr @AllocSetContextCreateInternal(ptr noundef %15, ptr noundef @.str.2, i64 noundef 0, i64 noundef 8192, i64 noundef 8388608)
  store ptr %16, ptr %9, align 8
  %17 = load ptr, ptr %9, align 8
  %18 = call ptr @MemoryContextAllocZero(ptr noundef %17, i64 noundef 208)
  store ptr %18, ptr %5, align 8
  %19 = load ptr, ptr %5, align 8
  %20 = getelementptr inbounds nuw %struct.ExpandedRecordHeader, ptr %19, i32 0, i32 0
  %21 = load ptr, ptr %9, align 8
  call void @EOH_init_header(ptr noundef %20, ptr noundef @ER_methods, ptr noundef %21)
  %22 = load ptr, ptr %5, align 8
  %23 = getelementptr inbounds nuw %struct.ExpandedRecordHeader, ptr %22, i32 0, i32 1
  store i32 1384727874, ptr %23, align 8
  %24 = load i64, ptr %3, align 8
  %25 = call ptr @DatumGetPointer(i64 noundef %24)
  %26 = call ptr @pg_detoast_datum(ptr noundef %25)
  store ptr %26, ptr %6, align 8
  %27 = load ptr, ptr %6, align 8
  %28 = call i32 @HeapTupleHeaderGetDatumLength(ptr noundef %27)
  %29 = getelementptr inbounds nuw %struct.HeapTupleData, ptr %7, i32 0, i32 0
  store i32 %28, ptr %29, align 8
  %30 = getelementptr inbounds nuw %struct.HeapTupleData, ptr %7, i32 0, i32 1
  call void @ItemPointerSetInvalid(ptr noundef %30)
  %31 = getelementptr inbounds nuw %struct.HeapTupleData, ptr %7, i32 0, i32 2
  store i32 0, ptr %31, align 4
  %32 = load ptr, ptr %6, align 8
  %33 = getelementptr inbounds nuw %struct.HeapTupleData, ptr %7, i32 0, i32 3
  store ptr %32, ptr %33, align 8
  %34 = load ptr, ptr %9, align 8
  %35 = call ptr @MemoryContextSwitchTo(ptr noundef %34)
  store ptr %35, ptr %10, align 8
  %36 = call ptr @heap_copytuple(ptr noundef %7)
  store ptr %36, ptr %8, align 8
  %37 = load ptr, ptr %5, align 8
  %38 = getelementptr inbounds nuw %struct.ExpandedRecordHeader, ptr %37, i32 0, i32 2
  %39 = load i32, ptr %38, align 4
  %40 = or i32 %39, 2
  store i32 %40, ptr %38, align 4
  %41 = load ptr, ptr %10, align 8
  %42 = call ptr @MemoryContextSwitchTo(ptr noundef %41)
  %43 = load ptr, ptr %6, align 8
  %44 = call i32 @HeapTupleHeaderGetTypeId(ptr noundef %43)
  %45 = load ptr, ptr %5, align 8
  %46 = getelementptr inbounds nuw %struct.ExpandedRecordHeader, ptr %45, i32 0, i32 4
  store i32 %44, ptr %46, align 4
  %47 = load ptr, ptr %5, align 8
  %48 = getelementptr inbounds nuw %struct.ExpandedRecordHeader, ptr %47, i32 0, i32 3
  store i32 %44, ptr %48, align 8
  %49 = load ptr, ptr %6, align 8
  %50 = call i32 @HeapTupleHeaderGetTypMod(ptr noundef %49)
  %51 = load ptr, ptr %5, align 8
  %52 = getelementptr inbounds nuw %struct.ExpandedRecordHeader, ptr %51, i32 0, i32 5
  store i32 %50, ptr %52, align 8
  %53 = load ptr, ptr %8, align 8
  %54 = load ptr, ptr %5, align 8
  %55 = getelementptr inbounds nuw %struct.ExpandedRecordHeader, ptr %54, i32 0, i32 15
  store ptr %53, ptr %55, align 8
  %56 = load ptr, ptr %8, align 8
  %57 = getelementptr inbounds nuw %struct.HeapTupleData, ptr %56, i32 0, i32 3
  %58 = load ptr, ptr %57, align 8
  %59 = load ptr, ptr %5, align 8
  %60 = getelementptr inbounds nuw %struct.ExpandedRecordHeader, ptr %59, i32 0, i32 16
  store ptr %58, ptr %60, align 8
  %61 = load ptr, ptr %8, align 8
  %62 = getelementptr inbounds nuw %struct.HeapTupleData, ptr %61, i32 0, i32 3
  %63 = load ptr, ptr %62, align 8
  %64 = load ptr, ptr %8, align 8
  %65 = getelementptr inbounds nuw %struct.HeapTupleData, ptr %64, i32 0, i32 0
  %66 = load i32, ptr %65, align 8
  %67 = zext i32 %66 to i64
  %68 = getelementptr inbounds nuw i8, ptr %63, i64 %67
  %69 = load ptr, ptr %5, align 8
  %70 = getelementptr inbounds nuw %struct.ExpandedRecordHeader, ptr %69, i32 0, i32 17
  store ptr %68, ptr %70, align 8
  %71 = load ptr, ptr %5, align 8
  %72 = getelementptr inbounds nuw %struct.ExpandedRecordHeader, ptr %71, i32 0, i32 2
  %73 = load i32, ptr %72, align 4
  %74 = or i32 %73, 1
  store i32 %74, ptr %72, align 4
  %75 = load ptr, ptr %5, align 8
  %76 = getelementptr inbounds nuw %struct.ExpandedRecordHeader, ptr %75, i32 0, i32 0
  %77 = call i64 @EOHPGetRWDatum(ptr noundef %76)
  call void @llvm.lifetime.end.p0(i64 8, ptr %10) #9
  call void @llvm.lifetime.end.p0(i64 8, ptr %9) #9
  call void @llvm.lifetime.end.p0(i64 8, ptr %8) #9
  call void @llvm.lifetime.end.p0(i64 24, ptr %7) #9
  call void @llvm.lifetime.end.p0(i64 8, ptr %6) #9
  call void @llvm.lifetime.end.p0(i64 8, ptr %5) #9
  ret i64 %77
}

; Function Attrs: inlinehint nounwind uwtable
define internal ptr @DatumGetPointer(i64 noundef %0) #5 {
  %2 = alloca i64, align 8
  store i64 %0, ptr %2, align 8
  %3 = load i64, ptr %2, align 8
  %4 = inttoptr i64 %3 to ptr
  ret ptr %4
}

; Function Attrs: nounwind uwtable
define dso_local ptr @DatumGetExpandedRecord(i64 noundef %0) #0 {
  %2 = alloca ptr, align 8
  %3 = alloca i64, align 8
  %4 = alloca ptr, align 8
  store i64 %0, ptr %3, align 8
  %5 = load i64, ptr %3, align 8
  %6 = call ptr @DatumGetPointer(i64 noundef %5)
  %7 = getelementptr inbounds nuw %struct.varattrib_1b, ptr %6, i32 0, i32 0
  %8 = load i8, ptr %7, align 1
  %9 = zext i8 %8 to i32
  %10 = icmp eq i32 %9, 1
  br i1 %10, label %11, label %22

11:                                               ; preds = %1
  %12 = load i64, ptr %3, align 8
  %13 = call ptr @DatumGetPointer(i64 noundef %12)
  %14 = getelementptr inbounds nuw %struct.varattrib_1b_e, ptr %13, i32 0, i32 1
  %15 = load i8, ptr %14, align 1
  %16 = zext i8 %15 to i32
  %17 = icmp eq i32 %16, 3
  br i1 %17, label %18, label %22

18:                                               ; preds = %11
  call void @llvm.lifetime.start.p0(i64 8, ptr %4) #9
  %19 = load i64, ptr %3, align 8
  %20 = call ptr @DatumGetEOHP(i64 noundef %19)
  store ptr %20, ptr %4, align 8
  %21 = load ptr, ptr %4, align 8
  store ptr %21, ptr %2, align 8
  call void @llvm.lifetime.end.p0(i64 8, ptr %4) #9
  br label %28

22:                                               ; preds = %11, %1
  %23 = load i64, ptr %3, align 8
  %24 = load ptr, ptr @CurrentMemoryContext, align 8
  %25 = call i64 @make_expanded_record_from_datum(i64 noundef %23, ptr noundef %24)
  store i64 %25, ptr %3, align 8
  %26 = load i64, ptr %3, align 8
  %27 = call ptr @DatumGetEOHP(i64 noundef %26)
  store ptr %27, ptr %2, align 8
  br label %28

28:                                               ; preds = %22, %18
  %29 = load ptr, ptr %2, align 8
  ret ptr %29
}