; Function Attrs: nounwind uwtable
define dso_local ptr @DatumGetExpandedRecord(i64 noundef %0) local_unnamed_addr #0 {
  %2 = alloca %struct.HeapTupleData, align 8
  %3 = inttoptr i64 %0 to ptr
  %4 = load i8, ptr %3, align 1
  %5 = icmp eq i8 %4, 1
  br i1 %5, label %6, label %12

6:                                                ; preds = %1
  %7 = getelementptr inbounds nuw i8, ptr %3, i64 1
  %8 = load i8, ptr %7, align 1
  %9 = icmp eq i8 %8, 3
  br i1 %9, label %10, label %12

10:                                               ; preds = %6
  %11 = tail call ptr @DatumGetEOHP(i64 noundef %0) #8
  br label %46

12:                                               ; preds = %6, %1
  %13 = load ptr, ptr @CurrentMemoryContext, align 8
  call void @llvm.lifetime.start.p0(i64 24, ptr nonnull %2) #8
  %14 = tail call ptr @AllocSetContextCreateInternal(ptr noundef %13, ptr noundef nonnull @.str.2, i64 noundef 0, i64 noundef 8192, i64 noundef 8388608) #8
  %15 = tail call ptr @MemoryContextAllocZero(ptr noundef %14, i64 noundef 208) #8
  tail call void @EOH_init_header(ptr noundef %15, ptr noundef nonnull @ER_methods, ptr noundef %14) #8
  %16 = getelementptr inbounds nuw i8, ptr %15, i64 48
  store i32 1384727874, ptr %16, align 8
  %17 = tail call ptr @pg_detoast_datum(ptr noundef nonnull %3) #8
  %.val.i = load i32, ptr %17, align 4
  %18 = lshr i32 %.val.i, 2
  store i32 %18, ptr %2, align 8
  %19 = getelementptr inbounds nuw i8, ptr %2, i64 4
  store i16 -1, ptr %19, align 4
  %20 = getelementptr inbounds nuw i8, ptr %2, i64 6
  store i16 -1, ptr %20, align 2
  %21 = getelementptr inbounds nuw i8, ptr %2, i64 8
  store i16 0, ptr %21, align 8
  %22 = getelementptr inbounds nuw i8, ptr %2, i64 12
  store i32 0, ptr %22, align 4
  %23 = getelementptr inbounds nuw i8, ptr %2, i64 16
  store ptr %17, ptr %23, align 8
  %24 = load ptr, ptr @CurrentMemoryContext, align 8
  store ptr %14, ptr @CurrentMemoryContext, align 8
  %25 = call ptr @heap_copytuple(ptr noundef nonnull %2) #8
  %26 = getelementptr inbounds nuw i8, ptr %15, i64 52
  %27 = load i32, ptr %26, align 4
  %28 = or i32 %27, 2
  store i32 %28, ptr %26, align 4
  store ptr %24, ptr @CurrentMemoryContext, align 8
  %29 = getelementptr i8, ptr %17, i64 8
  %.val24.i = load i32, ptr %29, align 4
  %30 = getelementptr inbounds nuw i8, ptr %15, i64 60
  store i32 %.val24.i, ptr %30, align 4
  %31 = getelementptr inbounds nuw i8, ptr %15, i64 56
  store i32 %.val24.i, ptr %31, align 8
  %32 = getelementptr i8, ptr %17, i64 4
  %.val25.i = load i32, ptr %32, align 4
  %33 = getelementptr inbounds nuw i8, ptr %15, i64 64
  store i32 %.val25.i, ptr %33, align 8
  %34 = getelementptr inbounds nuw i8, ptr %15, i64 136
  store ptr %25, ptr %34, align 8
  %35 = getelementptr inbounds nuw i8, ptr %25, i64 16
  %36 = load ptr, ptr %35, align 8
  %37 = getelementptr inbounds nuw i8, ptr %15, i64 144
  store ptr %36, ptr %37, align 8
  %38 = load i32, ptr %25, align 8
  %39 = zext i32 %38 to i64
  %40 = getelementptr inbounds nuw i8, ptr %36, i64 %39
  %41 = getelementptr inbounds nuw i8, ptr %15, i64 152
  store ptr %40, ptr %41, align 8
  %42 = or i32 %27, 3
  store i32 %42, ptr %26, align 4
  %43 = getelementptr inbounds nuw i8, ptr %15, i64 24
  %44 = ptrtoint ptr %43 to i64
  call void @llvm.lifetime.end.p0(i64 24, ptr nonnull %2) #8
  %45 = call ptr @DatumGetEOHP(i64 noundef %44) #8
  br label %46

46:                                               ; preds = %12, %10
  %.0 = phi ptr [ %11, %10 ], [ %45, %12 ]
  ret ptr %.0
}